; Function Attrs: mustprogress uwtable
define void @_ZN7logging10LogMessageC2EPKcii(ptr noundef nonnull align 8 dereferenceable(404) initializes((0, 4)) %0, ptr noundef %1, i32 noundef %2, i32 noundef %3) unnamed_addr #0 align 2 personality ptr @__gxx_personality_v0 {
  store i32 %3, ptr %0, align 8, !tbaa !93
  %5 = getelementptr inbounds nuw i8, ptr %0, i64 8
  tail call void @_ZNSt7__cxx1119basic_ostringstreamIcSt11char_traitsIcESaIcEEC1Ev(ptr noundef nonnull align 8 dereferenceable(112) %5)
  %6 = getelementptr inbounds nuw i8, ptr %0, i64 392
  store ptr %1, ptr %6, align 8, !tbaa !99
  %7 = getelementptr inbounds nuw i8, ptr %0, i64 400
  store i32 %2, ptr %7, align 8, !tbaa !100
  invoke void @_ZN7logging10LogMessage4InitEPKci(ptr noundef nonnull align 8 dereferenceable(404) %0, ptr noundef %1, i32 noundef %2)
          to label %8 unwind label %9

8:                                                ; preds = %4
  ret void

9:                                                ; preds = %4
  %10 = landingpad { ptr, i32 }
          cleanup
  tail call void @_ZNSt7__cxx1119basic_ostringstreamIcSt11char_traitsIcESaIcEED1Ev(ptr noundef nonnull align 8 dereferenceable(112) %5) #24
  resume { ptr, i32 } %10
}